target datalayout = "e-m:e-p270:32:32-p271:32:32-p272:64:64-i64:64-i128:128-f80:128-n8:16:32:64-S128"
target triple = "x86_64-pc-linux-gnu"

%struct.__va_list_tag = type { i32, i32, ptr, ptr }

; Function Attrs: mustprogress uwtable
define internal noundef i32 @_ZN6Assimp16AssxmlFileWriterL8ioprintfEPNS_8IOStreamEPKcz(ptr noundef %0, ptr noundef %1, ...) #0 {
  %3 = alloca i32, align 4
  %4 = alloca ptr, align 8
  %5 = alloca ptr, align 8
  %6 = alloca [4096 x i8], align 16
  %7 = alloca [1 x %struct.__va_list_tag], align 16
  %8 = alloca i32, align 4
  store ptr %0, ptr %4, align 8
  store ptr %1, ptr %5, align 8
  %9 = load ptr, ptr %4, align 8
  %10 = icmp eq ptr null, %9
  br i1 %10, label %11, label %12

11:                                               ; preds = %2
  store i32 -1, ptr %3, align 4
  br label %29

12:                                               ; preds = %2
  call void @llvm.lifetime.start.p0(i64 4096, ptr %6) #14
  %13 = getelementptr inbounds [4096 x i8], ptr %6, i64 0, i64 0
  call void @llvm.memset.p0.i64(ptr align 16 %13, i8 0, i64 4096, i1 false)
  call void @llvm.lifetime.start.p0(i64 24, ptr %7) #14
  %14 = getelementptr inbounds [1 x %struct.__va_list_tag], ptr %7, i64 0, i64 0
  call void @llvm.va_start.p0(ptr %14)
  call void @llvm.lifetime.start.p0(i64 4, ptr %8) #14
  %15 = getelementptr inbounds [4096 x i8], ptr %6, i64 0, i64 0
  %16 = load ptr, ptr %5, align 8
  %17 = getelementptr inbounds [1 x %struct.__va_list_tag], ptr %7, i64 0, i64 0
  %18 = call i32 @vsnprintf(ptr noundef %15, i64 noundef 4095, ptr noundef %16, ptr noundef %17) #14
  store i32 %18, ptr %8, align 4
  %19 = getelementptr inbounds [1 x %struct.__va_list_tag], ptr %7, i64 0, i64 0
  call void @llvm.va_end.p0(ptr %19)
  %20 = load ptr, ptr %4, align 8
  %21 = getelementptr inbounds [4096 x i8], ptr %6, i64 0, i64 0
  %22 = load i32, ptr %8, align 4
  %23 = zext i32 %22 to i64
  %24 = load ptr, ptr %20, align 8
  %25 = getelementptr inbounds ptr, ptr %24, i64 3
  %26 = load ptr, ptr %25, align 8
  %27 = call noundef i64 %26(ptr noundef nonnull align 8 dereferenceable(8) %20, ptr noundef %21, i64 noundef 1, i64 noundef %23)
  %28 = load i32, ptr %8, align 4
  store i32 %28, ptr %3, align 4
  call void @llvm.lifetime.end.p0(i64 4, ptr %8) #14
  call void @llvm.lifetime.end.p0(i64 24, ptr %7) #14
  call void @llvm.lifetime.end.p0(i64 4096, ptr %6) #14
  br label %29

29:                                               ; preds = %12, %11
  %30 = load i32, ptr %3, align 4
  ret i32 %30
}