; Function Attrs: mustprogress uwtable
define internal void @_ZN6Assimp16AssxmlFileWriterL8ioprintfEPNS_8IOStreamEPKcz(ptr noundef %0, ptr noundef readonly captures(none) %1, ...) unnamed_addr #0 {
  %3 = alloca [4096 x i8], align 16
  %4 = alloca [1 x %struct.__va_list_tag], align 16
  %5 = icmp eq ptr %0, null
  br i1 %5, label %13, label %6

6:                                                ; preds = %2
  call void @llvm.lifetime.start.p0(i64 4096, ptr nonnull %3) #16
  call void @llvm.memset.p0.i64(ptr noundef nonnull align 16 dereferenceable(4096) %3, i8 0, i64 4096, i1 false)
  call void @llvm.lifetime.start.p0(i64 24, ptr nonnull %4) #16
  call void @llvm.va_start.p0(ptr nonnull %4)
  %7 = call i32 @vsnprintf(ptr noundef nonnull %3, i64 noundef 4095, ptr noundef %1, ptr noundef nonnull %4) #16
  call void @llvm.va_end.p0(ptr nonnull %4)
  %8 = zext i32 %7 to i64
  %9 = load ptr, ptr %0, align 8
  %10 = getelementptr inbounds nuw i8, ptr %9, i64 24
  %11 = load ptr, ptr %10, align 8
  %12 = call noundef i64 %11(ptr noundef nonnull align 8 dereferenceable(8) %0, ptr noundef nonnull %3, i64 noundef 1, i64 noundef %8)
  call void @llvm.lifetime.end.p0(i64 24, ptr nonnull %4) #16
  call void @llvm.lifetime.end.p0(i64 4096, ptr nonnull %3) #16
  br label %13

13:                                               ; preds = %2, %6
  ret void
}